; Function Attrs: mustprogress uwtable
define hidden noundef nonnull align 8 dereferenceable(8) ptr @_ZNK2dd6solver7displayERSoRKNS0_8equationE(ptr noundef nonnull align 8 dereferenceable(208) %this, ptr noundef nonnull returned align 8 dereferenceable(8) %out, ptr noundef nonnull align 8 dereferenceable(32) %eq) local_unnamed_addr #5 align 2 {
entry:
  %__args.addr.i = alloca ptr, align 8
  %m_poly.i = getelementptr inbounds i8, ptr %eq, i64 8
  %call2 = tail call noundef nonnull align 8 dereferenceable(8) ptr @_ZN2ddlsERSoRKNS_3pddE(ptr noundef nonnull align 8 dereferenceable(8) %out, ptr noundef nonnull align 8 dereferenceable(16) %m_poly.i)
  %call3 = tail call noundef nonnull align 8 dereferenceable(8) ptr @_ZStlsISt11char_traitsIcEERSt13basic_ostreamIcT_ES5_PKc(ptr noundef nonnull align 8 dereferenceable(8) %call2, ptr noundef nonnull @.str.2)
  %_M_manager.i.i = getelementptr inbounds i8, ptr %this, i64 120
  %0 = load ptr, ptr %_M_manager.i.i, align 8
  %tobool.not.i.i.not = icmp eq ptr %0, null
  br i1 %tobool.not.i.i.not, label %if.end, label %_ZNKSt8functionIFvPN18dependency_managerIN25scoped_dependency_managerIjE6configEE10dependencyERSoEEclES6_S7_.exit

_ZNKSt8functionIFvPN18dependency_managerIN25scoped_dependency_managerIjE6configEE10dependencyERSoEEclES6_S7_.exit: ; preds = %entry
  %m_print_dep = getelementptr inbounds i8, ptr %this, i64 104
  %m_dep.i = getelementptr inbounds i8, ptr %eq, i64 24
  %1 = load ptr, ptr %m_dep.i, align 8
  call void @llvm.lifetime.start.p0(i64 8, ptr nonnull %__args.addr.i)
  store ptr %1, ptr %__args.addr.i, align 8
  %_M_invoker.i = getelementptr inbounds i8, ptr %this, i64 128
  %2 = load ptr, ptr %_M_invoker.i, align 8
  call void %2(ptr noundef nonnull align 8 dereferenceable(16) %m_print_dep, ptr noundef nonnull align 8 dereferenceable(8) %__args.addr.i, ptr noundef nonnull align 8 dereferenceable(8) %out)
  call void @llvm.lifetime.end.p0(i64 8, ptr nonnull %__args.addr.i)
  br label %if.end

if.end:                                           ; preds = %_ZNKSt8functionIFvPN18dependency_managerIN25scoped_dependency_managerIjE6configEE10dependencyERSoEEclES6_S7_.exit, %entry
  ret ptr %out
}